; Function Attrs: nounwind uwtable
define hidden i32 @exr_attr_string_init_static(ptr noundef %0, ptr noundef writeonly %1, ptr noundef %2) local_unnamed_addr #0 {
  %.not = icmp eq ptr %2, null
  br i1 %.not, label %.split, label %8

.split:                                           ; preds = %3
  %.not.i = icmp eq ptr %0, null
  br i1 %.not.i, label %exr_attr_string_init_static_with_length.exit, label %4

4:                                                ; preds = %.split
  %5 = getelementptr inbounds nuw i8, ptr %0, i64 64
  %6 = load ptr, ptr %5, align 8, !tbaa !22
  %7 = tail call i32 %6(ptr noundef nonnull %0, i32 noundef 3, ptr noundef nonnull @.str.2) #4
  br label %exr_attr_string_init_static_with_length.exit

8:                                                ; preds = %3
  %9 = tail call i64 @strlen(ptr noundef nonnull dereferenceable(1) %2) #5
  %10 = icmp ugt i64 %9, 2147483646
  br i1 %10, label %11, label %.split13

11:                                               ; preds = %8
  %.not16 = icmp eq ptr %0, null
  br i1 %.not16, label %exr_attr_string_init_static_with_length.exit, label %12

12:                                               ; preds = %11
  %13 = getelementptr inbounds nuw i8, ptr %0, i64 64
  %14 = load ptr, ptr %13, align 8, !tbaa !22
  %15 = tail call i32 %14(ptr noundef nonnull %0, i32 noundef 3, ptr noundef nonnull @.str.3) #4
  br label %exr_attr_string_init_static_with_length.exit

.split13:                                         ; preds = %8
  %16 = trunc nuw nsw i64 %9 to i32
  %.not.i17 = icmp eq ptr %0, null
  br i1 %.not.i17, label %exr_attr_string_init_static_with_length.exit, label %17

17:                                               ; preds = %.split13
  %.not21.i = icmp eq ptr %1, null
  br i1 %.not21.i, label %18, label %22

18:                                               ; preds = %17
  %19 = getelementptr inbounds nuw i8, ptr %0, i64 64
  %20 = load ptr, ptr %19, align 8, !tbaa !22
  %21 = tail call i32 %20(ptr noundef nonnull %0, i32 noundef 3, ptr noundef nonnull @.str.1) #4
  br label %exr_attr_string_init_static_with_length.exit

22:                                               ; preds = %17
  store i64 0, ptr %1, align 8
  store i32 %16, ptr %1, align 8, !tbaa !26
  %23 = getelementptr inbounds nuw i8, ptr %1, i64 8
  store ptr %2, ptr %23, align 8, !tbaa !24
  br label %exr_attr_string_init_static_with_length.exit

exr_attr_string_init_static_with_length.exit:     ; preds = %22, %18, %.split13, %4, %.split, %11, %12
  %.011 = phi i32 [ %15, %12 ], [ 2, %11 ], [ %7, %4 ], [ 2, %.split ], [ 0, %22 ], [ %21, %18 ], [ 2, %.split13 ]
  ret i32 %.011
}